target datalayout = "e-m:e-p270:32:32-p271:32:32-p272:64:64-i64:64-i128:128-f80:128-n8:16:32:64-S128"
target triple = "x86_64-pc-linux-gnu"

%struct.object_id = type { [32 x i8], i32 }
%struct.repository = type { ptr, ptr, ptr, ptr, ptr, %struct.strmap, %struct.strmap, %struct.repo_path_cache, ptr, ptr, ptr, ptr, %struct.repo_settings, ptr, ptr, ptr, ptr, ptr, ptr, i32, i32, i32, ptr, ptr, i32, i32, i8 }
%struct.strmap = type { %struct.hashmap, ptr, i8 }
%struct.hashmap = type { ptr, ptr, ptr, i32, i32, i32, i32, i8 }
%struct.repo_path_cache = type { ptr, ptr, ptr, ptr, ptr, ptr, ptr }
%struct.repo_settings = type { i32, i32, i32, i32, i32, i32, i32, i32, i32, i32, i32, i32, ptr, i32, i32, i32, i32, i32, i32, i32, i64, i64, i64 }
%struct.git_hash_algo = type { ptr, i32, i64, i64, i64, ptr, ptr, ptr, ptr, ptr, ptr, ptr, ptr, ptr }
%union.git_hash_ctx = type { %struct.SHA1_CTX }
%struct.SHA1_CTX = type { i64, [5 x i32], [64 x i8], i32, i32, i32, i32, i32, ptr, [5 x i32], [5 x i32], [80 x i32], [80 x i32], [80 x [5 x i32]] }

@.str.10 = private unnamed_addr constant [14 x i8] c"object-file.c\00", align 1
@.str.25 = private unnamed_addr constant [58 x i8] c"could not get a type name for 'enum object_type' value %d\00", align 1
@.str.76 = private unnamed_addr constant [7 x i8] c"%s %lu\00", align 1

; Function Attrs: nounwind uwtable
define internal i32 @format_object_header_literally(ptr noundef %0, i64 noundef %1, ptr noundef %2, i64 noundef %3) #0 {
  %5 = alloca ptr, align 8
  %6 = alloca i64, align 8
  %7 = alloca ptr, align 8
  %8 = alloca i64, align 8
  store ptr %0, ptr %5, align 8, !tbaa !12
  store i64 %1, ptr %6, align 8, !tbaa !10
  store ptr %2, ptr %7, align 8, !tbaa !12
  store i64 %3, ptr %8, align 8, !tbaa !10
  %9 = load ptr, ptr %5, align 8, !tbaa !12
  %10 = load i64, ptr %6, align 8, !tbaa !10
  %11 = load ptr, ptr %7, align 8, !tbaa !12
  %12 = load i64, ptr %8, align 8, !tbaa !10
  %13 = call i32 (ptr, i64, ptr, ...) @xsnprintf(ptr noundef %9, i64 noundef %10, ptr noundef @.str.76, ptr noundef %11, i64 noundef %12)
  %14 = add nsw i32 %13, 1
  ret i32 %14
}

; Function Attrs: inlinehint nounwind uwtable
define internal i32 @oideq(ptr noundef %0, ptr noundef %1) #7 {
  %3 = alloca ptr, align 8
  %4 = alloca ptr, align 8
  store ptr %0, ptr %3, align 8, !tbaa !14
  store ptr %1, ptr %4, align 8, !tbaa !14
  %5 = load ptr, ptr %3, align 8, !tbaa !14
  %6 = getelementptr inbounds nuw %struct.object_id, ptr %5, i32 0, i32 0
  %7 = getelementptr inbounds [32 x i8], ptr %6, i64 0, i64 0
  %8 = load ptr, ptr %4, align 8, !tbaa !14
  %9 = getelementptr inbounds nuw %struct.object_id, ptr %8, i32 0, i32 0
  %10 = getelementptr inbounds [32 x i8], ptr %9, i64 0, i64 0
  %11 = call i32 @memcmp(ptr noundef %7, ptr noundef %10, i64 noundef 32) #15
  %12 = icmp ne i32 %11, 0
  %13 = xor i1 %12, true
  %14 = zext i1 %13 to i32
  ret i32 %14
}

; Function Attrs: nounwind uwtable
define dso_local i32 @format_object_header(ptr noundef %0, i64 noundef %1, i32 noundef %2, i64 noundef %3) #0 {
  %5 = alloca ptr, align 8
  %6 = alloca i64, align 8
  %7 = alloca i32, align 4
  %8 = alloca i64, align 8
  %9 = alloca ptr, align 8
  store ptr %0, ptr %5, align 8, !tbaa !12
  store i64 %1, ptr %6, align 8, !tbaa !10
  store i32 %2, ptr %7, align 4, !tbaa !43
  store i64 %3, ptr %8, align 8, !tbaa !10
  call void @llvm.lifetime.start.p0(i64 8, ptr %9) #14
  %10 = load i32, ptr %7, align 4, !tbaa !43
  %11 = call ptr @type_name(i32 noundef %10)
  store ptr %11, ptr %9, align 8, !tbaa !12
  %12 = load ptr, ptr %9, align 8, !tbaa !12
  %13 = icmp ne ptr %12, null
  br i1 %13, label %16, label %14

14:                                               ; preds = %4
  %15 = load i32, ptr %7, align 4, !tbaa !43
  call void (ptr, i32, ptr, ...) @BUG_fl(ptr noundef @.str.10, i32 noundef 1159, ptr noundef @.str.25, i32 noundef %15) #13
  unreachable

16:                                               ; preds = %4
  %17 = load ptr, ptr %5, align 8, !tbaa !12
  %18 = load i64, ptr %6, align 8, !tbaa !10
  %19 = load ptr, ptr %9, align 8, !tbaa !12
  %20 = load i64, ptr %8, align 8, !tbaa !10
  %21 = call i32 @format_object_header_literally(ptr noundef %17, i64 noundef %18, ptr noundef %19, i64 noundef %20)
  call void @llvm.lifetime.end.p0(i64 8, ptr %9) #14
  ret i32 %21
}

; Function Attrs: nounwind uwtable
define dso_local i32 @stream_object_signature(ptr noundef %0, ptr noundef %1) #0 {
  %3 = alloca i32, align 4
  %4 = alloca ptr, align 8
  %5 = alloca ptr, align 8
  %6 = alloca %struct.object_id, align 4
  %7 = alloca i64, align 8
  %8 = alloca i32, align 4
  %9 = alloca ptr, align 8
  %10 = alloca %union.git_hash_ctx, align 8
  %11 = alloca [32 x i8], align 16
  %12 = alloca i32, align 4
  %13 = alloca i32, align 4
  %14 = alloca [16384 x i8], align 16
  %15 = alloca i64, align 8
  store ptr %0, ptr %4, align 8, !tbaa !19
  store ptr %1, ptr %5, align 8, !tbaa !14
  call void @llvm.lifetime.start.p0(i64 36, ptr %6) #14
  call void @llvm.lifetime.start.p0(i64 8, ptr %7) #14
  call void @llvm.lifetime.start.p0(i64 4, ptr %8) #14
  call void @llvm.lifetime.start.p0(i64 8, ptr %9) #14
  call void @llvm.lifetime.start.p0(i64 2400, ptr %10) #14
  call void @llvm.lifetime.start.p0(i64 32, ptr %11) #14
  call void @llvm.lifetime.start.p0(i64 4, ptr %12) #14
  %16 = load ptr, ptr %4, align 8, !tbaa !19
  %17 = load ptr, ptr %5, align 8, !tbaa !14
  %18 = call ptr @open_istream(ptr noundef %16, ptr noundef %17, ptr noundef %8, ptr noundef %7, ptr noundef null)
  store ptr %18, ptr %9, align 8, !tbaa !106
  %19 = load ptr, ptr %9, align 8, !tbaa !106
  %20 = icmp ne ptr %19, null
  br i1 %20, label %22, label %21

21:                                               ; preds = %2
  store i32 -1, ptr %3, align 4
  store i32 1, ptr %13, align 4
  br label %77

22:                                               ; preds = %2
  %23 = getelementptr inbounds [32 x i8], ptr %11, i64 0, i64 0
  %24 = load i32, ptr %8, align 4, !tbaa !43
  %25 = load i64, ptr %7, align 8, !tbaa !10
  %26 = call i32 @format_object_header(ptr noundef %23, i64 noundef 32, i32 noundef %24, i64 noundef %25)
  store i32 %26, ptr %12, align 4, !tbaa !43
  %27 = load ptr, ptr %4, align 8, !tbaa !19
  %28 = getelementptr inbounds nuw %struct.repository, ptr %27, i32 0, i32 17
  %29 = load ptr, ptr %28, align 8, !tbaa !21
  %30 = getelementptr inbounds nuw %struct.git_hash_algo, ptr %29, i32 0, i32 5
  %31 = load ptr, ptr %30, align 8, !tbaa !108
  call void %31(ptr noundef %10)
  %32 = load ptr, ptr %4, align 8, !tbaa !19
  %33 = getelementptr inbounds nuw %struct.repository, ptr %32, i32 0, i32 17
  %34 = load ptr, ptr %33, align 8, !tbaa !21
  %35 = getelementptr inbounds nuw %struct.git_hash_algo, ptr %34, i32 0, i32 7
  %36 = load ptr, ptr %35, align 8, !tbaa !109
  %37 = getelementptr inbounds [32 x i8], ptr %11, i64 0, i64 0
  %38 = load i32, ptr %12, align 4, !tbaa !43
  %39 = sext i32 %38 to i64
  call void %36(ptr noundef %10, ptr noundef %37, i64 noundef %39)
  br label %40

40:                                               ; preds = %63, %22
  call void @llvm.lifetime.start.p0(i64 16384, ptr %14) #14
  call void @llvm.lifetime.start.p0(i64 8, ptr %15) #14
  %41 = load ptr, ptr %9, align 8, !tbaa !106
  %42 = getelementptr inbounds [16384 x i8], ptr %14, i64 0, i64 0
  %43 = call i64 @read_istream(ptr noundef %41, ptr noundef %42, i64 noundef 16384)
  store i64 %43, ptr %15, align 8, !tbaa !10
  %44 = load i64, ptr %15, align 8, !tbaa !10
  %45 = icmp slt i64 %44, 0
  br i1 %45, label %46, label %49

46:                                               ; preds = %40
  %47 = load ptr, ptr %9, align 8, !tbaa !106
  %48 = call i32 @close_istream(ptr noundef %47)
  store i32 -1, ptr %3, align 4
  store i32 1, ptr %13, align 4
  br label %61

49:                                               ; preds = %40
  %50 = load i64, ptr %15, align 8, !tbaa !10
  %51 = icmp ne i64 %50, 0
  br i1 %51, label %53, label %52

52:                                               ; preds = %49
  store i32 2, ptr %13, align 4
  br label %61

53:                                               ; preds = %49
  %54 = load ptr, ptr %4, align 8, !tbaa !19
  %55 = getelementptr inbounds nuw %struct.repository, ptr %54, i32 0, i32 17
  %56 = load ptr, ptr %55, align 8, !tbaa !21
  %57 = getelementptr inbounds nuw %struct.git_hash_algo, ptr %56, i32 0, i32 7
  %58 = load ptr, ptr %57, align 8, !tbaa !109
  %59 = getelementptr inbounds [16384 x i8], ptr %14, i64 0, i64 0
  %60 = load i64, ptr %15, align 8, !tbaa !10
  call void %58(ptr noundef %10, ptr noundef %59, i64 noundef %60)
  store i32 0, ptr %13, align 4
  br label %61

61:                                               ; preds = %53, %52, %46
  call void @llvm.lifetime.end.p0(i64 8, ptr %15) #14
  call void @llvm.lifetime.end.p0(i64 16384, ptr %14) #14
  %62 = load i32, ptr %13, align 4
  switch i32 %62, label %77 [
    i32 0, label %63
    i32 2, label %64
  ]

63:                                               ; preds = %61
  br label %40

64:                                               ; preds = %61
  %65 = load ptr, ptr %4, align 8, !tbaa !19
  %66 = getelementptr inbounds nuw %struct.repository, ptr %65, i32 0, i32 17
  %67 = load ptr, ptr %66, align 8, !tbaa !21
  %68 = getelementptr inbounds nuw %struct.git_hash_algo, ptr %67, i32 0, i32 9
  %69 = load ptr, ptr %68, align 8, !tbaa !110
  call void %69(ptr noundef %6, ptr noundef %10)
  %70 = load ptr, ptr %9, align 8, !tbaa !106
  %71 = call i32 @close_istream(ptr noundef %70)
  %72 = load ptr, ptr %5, align 8, !tbaa !14
  %73 = call i32 @oideq(ptr noundef %72, ptr noundef %6)
  %74 = icmp ne i32 %73, 0
  %75 = xor i1 %74, true
  %76 = select i1 %75, i32 -1, i32 0
  store i32 %76, ptr %3, align 4
  store i32 1, ptr %13, align 4
  br label %77

77:                                               ; preds = %64, %61, %21
  call void @llvm.lifetime.end.p0(i64 4, ptr %12) #14
  call void @llvm.lifetime.end.p0(i64 32, ptr %11) #14
  call void @llvm.lifetime.end.p0(i64 2400, ptr %10) #14
  call void @llvm.lifetime.end.p0(i64 8, ptr %9) #14
  call void @llvm.lifetime.end.p0(i64 4, ptr %8) #14
  call void @llvm.lifetime.end.p0(i64 8, ptr %7) #14
  call void @llvm.lifetime.end.p0(i64 36, ptr %6) #14
  %78 = load i32, ptr %3, align 4
  ret i32 %78
}