; Function Attrs: nounwind uwtable
define dso_local range(i32 -1, 1) i32 @stream_object_signature(ptr noundef %0, ptr noundef %1) local_unnamed_addr #1 {
  %3 = alloca %struct.object_id, align 4
  %4 = alloca i64, align 8
  %5 = alloca i32, align 4
  %6 = alloca %union.git_hash_ctx, align 8
  %7 = alloca [32 x i8], align 16
  %8 = alloca [16384 x i8], align 16
  call void @llvm.lifetime.start.p0(i64 36, ptr nonnull %3) #27
  call void @llvm.lifetime.start.p0(i64 8, ptr nonnull %4) #27
  call void @llvm.lifetime.start.p0(i64 4, ptr nonnull %5) #27
  call void @llvm.lifetime.start.p0(i64 2400, ptr nonnull %6) #27
  call void @llvm.lifetime.start.p0(i64 32, ptr nonnull %7) #27
  %9 = call ptr @open_istream(ptr noundef %0, ptr noundef %1, ptr noundef nonnull %5, ptr noundef nonnull %4, ptr noundef null) #27
  %.not = icmp eq ptr %9, null
  br i1 %.not, label %40, label %10

10:                                               ; preds = %2
  %11 = load i32, ptr %5, align 4, !tbaa !44
  %12 = load i64, ptr %4, align 8, !tbaa !94
  %13 = call ptr @type_name(i32 noundef %11) #27
  %.not.i = icmp eq ptr %13, null
  br i1 %.not.i, label %14, label %format_object_header.exit

14:                                               ; preds = %10
  call void (ptr, i32, ptr, ...) @BUG_fl(ptr noundef nonnull @.str.10, i32 noundef 1159, ptr noundef nonnull @.str.25, i32 noundef %11) #26
  unreachable

format_object_header.exit:                        ; preds = %10
  %15 = call i32 (ptr, i64, ptr, ...) @xsnprintf(ptr noundef nonnull %7, i64 noundef 32, ptr noundef nonnull @.str.76, ptr noundef nonnull %13, i64 noundef %12) #27
  %16 = add nsw i32 %15, 1
  %17 = getelementptr inbounds nuw i8, ptr %0, i64 400
  %18 = load ptr, ptr %17, align 8, !tbaa !12
  %19 = getelementptr inbounds nuw i8, ptr %18, i64 40
  %20 = load ptr, ptr %19, align 8, !tbaa !100
  call void %20(ptr noundef nonnull %6) #27
  %21 = load ptr, ptr %17, align 8, !tbaa !12
  %22 = getelementptr inbounds nuw i8, ptr %21, i64 56
  %23 = load ptr, ptr %22, align 8, !tbaa !101
  %24 = sext i32 %16 to i64
  call void %23(ptr noundef nonnull %6, ptr noundef nonnull %7, i64 noundef %24) #27
  call void @llvm.lifetime.start.p0(i64 16384, ptr nonnull %8) #27
  %25 = call i64 @read_istream(ptr noundef nonnull %9, ptr noundef nonnull %8, i64 noundef 16384) #27
  %26 = icmp slt i64 %25, 0
  br i1 %26, label %.thread, label %.lr.ph

.thread:                                          ; preds = %29, %format_object_header.exit
  %27 = call i32 @close_istream(ptr noundef nonnull %9) #27
  call void @llvm.lifetime.end.p0(i64 16384, ptr nonnull %8) #27
  br label %40

.lr.ph:                                           ; preds = %format_object_header.exit, %29
  %28 = phi i64 [ %33, %29 ], [ %25, %format_object_header.exit ]
  %.not19 = icmp eq i64 %28, 0
  br i1 %.not19, label %35, label %29

29:                                               ; preds = %.lr.ph
  %30 = load ptr, ptr %17, align 8, !tbaa !12
  %31 = getelementptr inbounds nuw i8, ptr %30, i64 56
  %32 = load ptr, ptr %31, align 8, !tbaa !101
  call void %32(ptr noundef nonnull %6, ptr noundef nonnull %8, i64 noundef %28) #27
  call void @llvm.lifetime.end.p0(i64 16384, ptr nonnull %8) #27
  call void @llvm.lifetime.start.p0(i64 16384, ptr nonnull %8) #27
  %33 = call i64 @read_istream(ptr noundef nonnull %9, ptr noundef nonnull %8, i64 noundef 16384) #27
  %34 = icmp slt i64 %33, 0
  br i1 %34, label %.thread, label %.lr.ph

35:                                               ; preds = %.lr.ph
  call void @llvm.lifetime.end.p0(i64 16384, ptr nonnull %8) #27
  %36 = load ptr, ptr %17, align 8, !tbaa !12
  %37 = getelementptr inbounds nuw i8, ptr %36, i64 72
  %38 = load ptr, ptr %37, align 8, !tbaa !102
  call void %38(ptr noundef nonnull %3, ptr noundef nonnull %6) #27
  %39 = call i32 @close_istream(ptr noundef nonnull %9) #27
  %bcmp.i = call i32 @bcmp(ptr noundef nonnull readonly dereferenceable(32) %1, ptr noundef nonnull readonly dereferenceable(32) %3, i64 32)
  %.not.i21 = icmp ne i32 %bcmp.i, 0
  %sext = sext i1 %.not.i21 to i32
  br label %40

40:                                               ; preds = %.thread, %2, %35
  %.0 = phi i32 [ %sext, %35 ], [ -1, %2 ], [ -1, %.thread ]
  call void @llvm.lifetime.end.p0(i64 32, ptr nonnull %7) #27
  call void @llvm.lifetime.end.p0(i64 2400, ptr nonnull %6) #27
  call void @llvm.lifetime.end.p0(i64 4, ptr nonnull %5) #27
  call void @llvm.lifetime.end.p0(i64 8, ptr nonnull %4) #27
  call void @llvm.lifetime.end.p0(i64 36, ptr nonnull %3) #27
  ret i32 %.0
}